target datalayout = "e-m:e-p270:32:32-p271:32:32-p272:64:64-i64:64-i128:128-f80:128-n8:16:32:64-S128"
target triple = "x86_64-pc-linux-gnu"

%struct.WebPDecBuffer = type { i32, i32, i32, i32, %union.anon, [4 x i32], ptr }
%union.anon = type { %struct.WebPYUVABuffer }
%struct.WebPYUVABuffer = type { ptr, ptr, ptr, ptr, i32, i32, i32, i32, i64, i64, i64, i64 }
%struct.WebPRGBABuffer = type { ptr, i32, i64 }

@kModeBpp = internal constant [13 x i8] c"\03\04\03\04\04\02\02\04\04\04\02\01\01", align 1

; Function Attrs: inlinehint nounwind uwtable
define internal i32 @WebPIsRGBMode(i32 noundef %0) #1 {
  %2 = alloca i32, align 4
  store i32 %0, ptr %2, align 4, !tbaa !3
  %3 = load i32, ptr %2, align 4, !tbaa !3
  %4 = icmp ult i32 %3, 11
  %5 = zext i1 %4 to i32
  ret i32 %5
}

; Function Attrs: nounwind uwtable
define hidden i32 @IsValidColorspace(i32 noundef %0) #0 {
  %2 = alloca i32, align 4
  store i32 %0, ptr %2, align 4, !tbaa !3
  %3 = load i32, ptr %2, align 4, !tbaa !3
  %4 = icmp sge i32 %3, 0
  br i1 %4, label %5, label %8

5:                                                ; preds = %1
  %6 = load i32, ptr %2, align 4, !tbaa !3
  %7 = icmp slt i32 %6, 13
  br label %8

8:                                                ; preds = %5, %1
  %9 = phi i1 [ false, %1 ], [ %7, %5 ]
  %10 = zext i1 %9 to i32
  ret i32 %10
}

; Function Attrs: nounwind uwtable
define internal i32 @CheckDecBuffer(ptr noundef %0) #0 {
  %2 = alloca ptr, align 8
  %3 = alloca i32, align 4
  %4 = alloca i32, align 4
  %5 = alloca i32, align 4
  %6 = alloca i32, align 4
  %7 = alloca ptr, align 8
  %8 = alloca i32, align 4
  %9 = alloca i32, align 4
  %10 = alloca i32, align 4
  %11 = alloca i32, align 4
  %12 = alloca i32, align 4
  %13 = alloca i32, align 4
  %14 = alloca i64, align 8
  %15 = alloca i64, align 8
  %16 = alloca i64, align 8
  %17 = alloca i64, align 8
  %18 = alloca ptr, align 8
  %19 = alloca i32, align 4
  %20 = alloca i64, align 8
  store ptr %0, ptr %2, align 8, !tbaa !7
  call void @llvm.lifetime.start.p0(i64 4, ptr %3) #7
  store i32 1, ptr %3, align 4, !tbaa !3
  call void @llvm.lifetime.start.p0(i64 4, ptr %4) #7
  %21 = load ptr, ptr %2, align 8, !tbaa !7
  %22 = getelementptr inbounds nuw %struct.WebPDecBuffer, ptr %21, i32 0, i32 0
  %23 = load i32, ptr %22, align 8, !tbaa !10
  store i32 %23, ptr %4, align 4, !tbaa !3
  call void @llvm.lifetime.start.p0(i64 4, ptr %5) #7
  %24 = load ptr, ptr %2, align 8, !tbaa !7
  %25 = getelementptr inbounds nuw %struct.WebPDecBuffer, ptr %24, i32 0, i32 1
  %26 = load i32, ptr %25, align 4, !tbaa !43
  store i32 %26, ptr %5, align 4, !tbaa !3
  call void @llvm.lifetime.start.p0(i64 4, ptr %6) #7
  %27 = load ptr, ptr %2, align 8, !tbaa !7
  %28 = getelementptr inbounds nuw %struct.WebPDecBuffer, ptr %27, i32 0, i32 2
  %29 = load i32, ptr %28, align 8, !tbaa !15
  store i32 %29, ptr %6, align 4, !tbaa !3
  %30 = load i32, ptr %4, align 4, !tbaa !3
  %31 = call i32 @IsValidColorspace(i32 noundef %30)
  %32 = icmp ne i32 %31, 0
  br i1 %32, label %34, label %33

33:                                               ; preds = %1
  store i32 0, ptr %3, align 4, !tbaa !3
  br label %237

34:                                               ; preds = %1
  %35 = load i32, ptr %4, align 4, !tbaa !3
  %36 = call i32 @WebPIsRGBMode(i32 noundef %35)
  %37 = icmp ne i32 %36, 0
  br i1 %37, label %187, label %38

38:                                               ; preds = %34
  call void @llvm.lifetime.start.p0(i64 8, ptr %7) #7
  %39 = load ptr, ptr %2, align 8, !tbaa !7
  %40 = getelementptr inbounds nuw %struct.WebPDecBuffer, ptr %39, i32 0, i32 4
  store ptr %40, ptr %7, align 8, !tbaa !20
  call void @llvm.lifetime.start.p0(i64 4, ptr %8) #7
  %41 = load i32, ptr %5, align 4, !tbaa !3
  %42 = add nsw i32 %41, 1
  %43 = sdiv i32 %42, 2
  store i32 %43, ptr %8, align 4, !tbaa !3
  call void @llvm.lifetime.start.p0(i64 4, ptr %9) #7
  %44 = load i32, ptr %6, align 4, !tbaa !3
  %45 = add nsw i32 %44, 1
  %46 = sdiv i32 %45, 2
  store i32 %46, ptr %9, align 4, !tbaa !3
  call void @llvm.lifetime.start.p0(i64 4, ptr %10) #7
  %47 = load ptr, ptr %7, align 8, !tbaa !20
  %48 = getelementptr inbounds nuw %struct.WebPYUVABuffer, ptr %47, i32 0, i32 4
  %49 = load i32, ptr %48, align 8, !tbaa !23
  %50 = call i32 @llvm.abs.i32(i32 %49, i1 true)
  store i32 %50, ptr %10, align 4, !tbaa !3
  call void @llvm.lifetime.start.p0(i64 4, ptr %11) #7
  %51 = load ptr, ptr %7, align 8, !tbaa !20
  %52 = getelementptr inbounds nuw %struct.WebPYUVABuffer, ptr %51, i32 0, i32 5
  %53 = load i32, ptr %52, align 4, !tbaa !26
  %54 = call i32 @llvm.abs.i32(i32 %53, i1 true)
  store i32 %54, ptr %11, align 4, !tbaa !3
  call void @llvm.lifetime.start.p0(i64 4, ptr %12) #7
  %55 = load ptr, ptr %7, align 8, !tbaa !20
  %56 = getelementptr inbounds nuw %struct.WebPYUVABuffer, ptr %55, i32 0, i32 6
  %57 = load i32, ptr %56, align 8, !tbaa !28
  %58 = call i32 @llvm.abs.i32(i32 %57, i1 true)
  store i32 %58, ptr %12, align 4, !tbaa !3
  call void @llvm.lifetime.start.p0(i64 4, ptr %13) #7
  %59 = load ptr, ptr %7, align 8, !tbaa !20
  %60 = getelementptr inbounds nuw %struct.WebPYUVABuffer, ptr %59, i32 0, i32 7
  %61 = load i32, ptr %60, align 4, !tbaa !31
  %62 = call i32 @llvm.abs.i32(i32 %61, i1 true)
  store i32 %62, ptr %13, align 4, !tbaa !3
  call void @llvm.lifetime.start.p0(i64 8, ptr %14) #7
  %63 = load i32, ptr %10, align 4, !tbaa !3
  %64 = sext i32 %63 to i64
  %65 = load i32, ptr %6, align 4, !tbaa !3
  %66 = sub nsw i32 %65, 1
  %67 = sext i32 %66 to i64
  %68 = mul i64 %64, %67
  %69 = load i32, ptr %5, align 4, !tbaa !3
  %70 = sext i32 %69 to i64
  %71 = add i64 %68, %70
  store i64 %71, ptr %14, align 8, !tbaa !22
  call void @llvm.lifetime.start.p0(i64 8, ptr %15) #7
  %72 = load i32, ptr %11, align 4, !tbaa !3
  %73 = sext i32 %72 to i64
  %74 = load i32, ptr %9, align 4, !tbaa !3
  %75 = sub nsw i32 %74, 1
  %76 = sext i32 %75 to i64
  %77 = mul i64 %73, %76
  %78 = load i32, ptr %8, align 4, !tbaa !3
  %79 = sext i32 %78 to i64
  %80 = add i64 %77, %79
  store i64 %80, ptr %15, align 8, !tbaa !22
  call void @llvm.lifetime.start.p0(i64 8, ptr %16) #7
  %81 = load i32, ptr %12, align 4, !tbaa !3
  %82 = sext i32 %81 to i64
  %83 = load i32, ptr %9, align 4, !tbaa !3
  %84 = sub nsw i32 %83, 1
  %85 = sext i32 %84 to i64
  %86 = mul i64 %82, %85
  %87 = load i32, ptr %8, align 4, !tbaa !3
  %88 = sext i32 %87 to i64
  %89 = add i64 %86, %88
  store i64 %89, ptr %16, align 8, !tbaa !22
  call void @llvm.lifetime.start.p0(i64 8, ptr %17) #7
  %90 = load i32, ptr %13, align 4, !tbaa !3
  %91 = sext i32 %90 to i64
  %92 = load i32, ptr %6, align 4, !tbaa !3
  %93 = sub nsw i32 %92, 1
  %94 = sext i32 %93 to i64
  %95 = mul i64 %91, %94
  %96 = load i32, ptr %5, align 4, !tbaa !3
  %97 = sext i32 %96 to i64
  %98 = add i64 %95, %97
  store i64 %98, ptr %17, align 8, !tbaa !22
  %99 = load i64, ptr %14, align 8, !tbaa !22
  %100 = load ptr, ptr %7, align 8, !tbaa !20
  %101 = getelementptr inbounds nuw %struct.WebPYUVABuffer, ptr %100, i32 0, i32 8
  %102 = load i64, ptr %101, align 8, !tbaa !49
  %103 = icmp ule i64 %99, %102
  %104 = zext i1 %103 to i32
  %105 = load i32, ptr %3, align 4, !tbaa !3
  %106 = and i32 %105, %104
  store i32 %106, ptr %3, align 4, !tbaa !3
  %107 = load i64, ptr %15, align 8, !tbaa !22
  %108 = load ptr, ptr %7, align 8, !tbaa !20
  %109 = getelementptr inbounds nuw %struct.WebPYUVABuffer, ptr %108, i32 0, i32 9
  %110 = load i64, ptr %109, align 8, !tbaa !50
  %111 = icmp ule i64 %107, %110
  %112 = zext i1 %111 to i32
  %113 = load i32, ptr %3, align 4, !tbaa !3
  %114 = and i32 %113, %112
  store i32 %114, ptr %3, align 4, !tbaa !3
  %115 = load i64, ptr %16, align 8, !tbaa !22
  %116 = load ptr, ptr %7, align 8, !tbaa !20
  %117 = getelementptr inbounds nuw %struct.WebPYUVABuffer, ptr %116, i32 0, i32 10
  %118 = load i64, ptr %117, align 8, !tbaa !51
  %119 = icmp ule i64 %115, %118
  %120 = zext i1 %119 to i32
  %121 = load i32, ptr %3, align 4, !tbaa !3
  %122 = and i32 %121, %120
  store i32 %122, ptr %3, align 4, !tbaa !3
  %123 = load i32, ptr %10, align 4, !tbaa !3
  %124 = load i32, ptr %5, align 4, !tbaa !3
  %125 = icmp sge i32 %123, %124
  %126 = zext i1 %125 to i32
  %127 = load i32, ptr %3, align 4, !tbaa !3
  %128 = and i32 %127, %126
  store i32 %128, ptr %3, align 4, !tbaa !3
  %129 = load i32, ptr %11, align 4, !tbaa !3
  %130 = load i32, ptr %8, align 4, !tbaa !3
  %131 = icmp sge i32 %129, %130
  %132 = zext i1 %131 to i32
  %133 = load i32, ptr %3, align 4, !tbaa !3
  %134 = and i32 %133, %132
  store i32 %134, ptr %3, align 4, !tbaa !3
  %135 = load i32, ptr %12, align 4, !tbaa !3
  %136 = load i32, ptr %8, align 4, !tbaa !3
  %137 = icmp sge i32 %135, %136
  %138 = zext i1 %137 to i32
  %139 = load i32, ptr %3, align 4, !tbaa !3
  %140 = and i32 %139, %138
  store i32 %140, ptr %3, align 4, !tbaa !3
  %141 = load ptr, ptr %7, align 8, !tbaa !20
  %142 = getelementptr inbounds nuw %struct.WebPYUVABuffer, ptr %141, i32 0, i32 0
  %143 = load ptr, ptr %142, align 8, !tbaa !25
  %144 = icmp ne ptr %143, null
  %145 = zext i1 %144 to i32
  %146 = load i32, ptr %3, align 4, !tbaa !3
  %147 = and i32 %146, %145
  store i32 %147, ptr %3, align 4, !tbaa !3
  %148 = load ptr, ptr %7, align 8, !tbaa !20
  %149 = getelementptr inbounds nuw %struct.WebPYUVABuffer, ptr %148, i32 0, i32 1
  %150 = load ptr, ptr %149, align 8, !tbaa !27
  %151 = icmp ne ptr %150, null
  %152 = zext i1 %151 to i32
  %153 = load i32, ptr %3, align 4, !tbaa !3
  %154 = and i32 %153, %152
  store i32 %154, ptr %3, align 4, !tbaa !3
  %155 = load ptr, ptr %7, align 8, !tbaa !20
  %156 = getelementptr inbounds nuw %struct.WebPYUVABuffer, ptr %155, i32 0, i32 2
  %157 = load ptr, ptr %156, align 8, !tbaa !29
  %158 = icmp ne ptr %157, null
  %159 = zext i1 %158 to i32
  %160 = load i32, ptr %3, align 4, !tbaa !3
  %161 = and i32 %160, %159
  store i32 %161, ptr %3, align 4, !tbaa !3
  %162 = load i32, ptr %4, align 4, !tbaa !3
  %163 = icmp eq i32 %162, 12
  br i1 %163, label %164, label %186

164:                                              ; preds = %38
  %165 = load i32, ptr %13, align 4, !tbaa !3
  %166 = load i32, ptr %5, align 4, !tbaa !3
  %167 = icmp sge i32 %165, %166
  %168 = zext i1 %167 to i32
  %169 = load i32, ptr %3, align 4, !tbaa !3
  %170 = and i32 %169, %168
  store i32 %170, ptr %3, align 4, !tbaa !3
  %171 = load i64, ptr %17, align 8, !tbaa !22
  %172 = load ptr, ptr %7, align 8, !tbaa !20
  %173 = getelementptr inbounds nuw %struct.WebPYUVABuffer, ptr %172, i32 0, i32 11
  %174 = load i64, ptr %173, align 8, !tbaa !52
  %175 = icmp ule i64 %171, %174
  %176 = zext i1 %175 to i32
  %177 = load i32, ptr %3, align 4, !tbaa !3
  %178 = and i32 %177, %176
  store i32 %178, ptr %3, align 4, !tbaa !3
  %179 = load ptr, ptr %7, align 8, !tbaa !20
  %180 = getelementptr inbounds nuw %struct.WebPYUVABuffer, ptr %179, i32 0, i32 3
  %181 = load ptr, ptr %180, align 8, !tbaa !30
  %182 = icmp ne ptr %181, null
  %183 = zext i1 %182 to i32
  %184 = load i32, ptr %3, align 4, !tbaa !3
  %185 = and i32 %184, %183
  store i32 %185, ptr %3, align 4, !tbaa !3
  br label %186

186:                                              ; preds = %164, %38
  call void @llvm.lifetime.end.p0(i64 8, ptr %17) #7
  call void @llvm.lifetime.end.p0(i64 8, ptr %16) #7
  call void @llvm.lifetime.end.p0(i64 8, ptr %15) #7
  call void @llvm.lifetime.end.p0(i64 8, ptr %14) #7
  call void @llvm.lifetime.end.p0(i64 4, ptr %13) #7
  call void @llvm.lifetime.end.p0(i64 4, ptr %12) #7
  call void @llvm.lifetime.end.p0(i64 4, ptr %11) #7
  call void @llvm.lifetime.end.p0(i64 4, ptr %10) #7
  call void @llvm.lifetime.end.p0(i64 4, ptr %9) #7
  call void @llvm.lifetime.end.p0(i64 4, ptr %8) #7
  call void @llvm.lifetime.end.p0(i64 8, ptr %7) #7
  br label %236

187:                                              ; preds = %34
  call void @llvm.lifetime.start.p0(i64 8, ptr %18) #7
  %188 = load ptr, ptr %2, align 8, !tbaa !7
  %189 = getelementptr inbounds nuw %struct.WebPDecBuffer, ptr %188, i32 0, i32 4
  store ptr %189, ptr %18, align 8, !tbaa !13
  call void @llvm.lifetime.start.p0(i64 4, ptr %19) #7
  %190 = load ptr, ptr %18, align 8, !tbaa !13
  %191 = getelementptr inbounds nuw %struct.WebPRGBABuffer, ptr %190, i32 0, i32 1
  %192 = load i32, ptr %191, align 8, !tbaa !16
  %193 = call i32 @llvm.abs.i32(i32 %192, i1 true)
  store i32 %193, ptr %19, align 4, !tbaa !3
  call void @llvm.lifetime.start.p0(i64 8, ptr %20) #7
  %194 = load i32, ptr %19, align 4, !tbaa !3
  %195 = sext i32 %194 to i64
  %196 = load i32, ptr %6, align 4, !tbaa !3
  %197 = sub nsw i32 %196, 1
  %198 = sext i32 %197 to i64
  %199 = mul i64 %195, %198
  %200 = load i32, ptr %5, align 4, !tbaa !3
  %201 = sext i32 %200 to i64
  %202 = load i32, ptr %4, align 4, !tbaa !3
  %203 = zext i32 %202 to i64
  %204 = getelementptr inbounds nuw [13 x i8], ptr @kModeBpp, i64 0, i64 %203
  %205 = load i8, ptr %204, align 1, !tbaa !47
  %206 = zext i8 %205 to i64
  %207 = mul i64 %201, %206
  %208 = add i64 %199, %207
  store i64 %208, ptr %20, align 8, !tbaa !22
  %209 = load i64, ptr %20, align 8, !tbaa !22
  %210 = load ptr, ptr %18, align 8, !tbaa !13
  %211 = getelementptr inbounds nuw %struct.WebPRGBABuffer, ptr %210, i32 0, i32 2
  %212 = load i64, ptr %211, align 8, !tbaa !53
  %213 = icmp ule i64 %209, %212
  %214 = zext i1 %213 to i32
  %215 = load i32, ptr %3, align 4, !tbaa !3
  %216 = and i32 %215, %214
  store i32 %216, ptr %3, align 4, !tbaa !3
  %217 = load i32, ptr %19, align 4, !tbaa !3
  %218 = load i32, ptr %5, align 4, !tbaa !3
  %219 = load i32, ptr %4, align 4, !tbaa !3
  %220 = zext i32 %219 to i64
  %221 = getelementptr inbounds nuw [13 x i8], ptr @kModeBpp, i64 0, i64 %220
  %222 = load i8, ptr %221, align 1, !tbaa !47
  %223 = zext i8 %222 to i32
  %224 = mul nsw i32 %218, %223
  %225 = icmp sge i32 %217, %224
  %226 = zext i1 %225 to i32
  %227 = load i32, ptr %3, align 4, !tbaa !3
  %228 = and i32 %227, %226
  store i32 %228, ptr %3, align 4, !tbaa !3
  %229 = load ptr, ptr %18, align 8, !tbaa !13
  %230 = getelementptr inbounds nuw %struct.WebPRGBABuffer, ptr %229, i32 0, i32 0
  %231 = load ptr, ptr %230, align 8, !tbaa !19
  %232 = icmp ne ptr %231, null
  %233 = zext i1 %232 to i32
  %234 = load i32, ptr %3, align 4, !tbaa !3
  %235 = and i32 %234, %233
  store i32 %235, ptr %3, align 4, !tbaa !3
  call void @llvm.lifetime.end.p0(i64 8, ptr %20) #7
  call void @llvm.lifetime.end.p0(i64 4, ptr %19) #7
  call void @llvm.lifetime.end.p0(i64 8, ptr %18) #7
  br label %236

236:                                              ; preds = %187, %186
  br label %237

237:                                              ; preds = %236, %33
  %238 = load i32, ptr %3, align 4, !tbaa !3
  %239 = icmp ne i32 %238, 0
  %240 = select i1 %239, i32 0, i32 2
  call void @llvm.lifetime.end.p0(i64 4, ptr %6) #7
  call void @llvm.lifetime.end.p0(i64 4, ptr %5) #7
  call void @llvm.lifetime.end.p0(i64 4, ptr %4) #7
  call void @llvm.lifetime.end.p0(i64 4, ptr %3) #7
  ret i32 %240
}